#include <math.h>
#include <stdio.h>
#include <stdlib.h>
#include <string.h>
#include <iostream>
using namespace std;

int cal(int,int);
int main ()
{
    //???? 
    int n=0;
    cin>>n;
    //?????? 
    for (int i=0;i<n;i++)
    {
        int m=0;
        cin>>m;
        //?2?????????????? 
        cout<<cal(m,2)<<endl;
    }
    
    return 0;
}
//???????1??????????2????????? 
int cal (int m,int i)
{
    int count=0;
    if (m==1) return 1;//???1?????????1??? 
    for (i;i<=m;i++)//??i????????????? 
    {
        
        if (m%i==0)
        {
              count+=cal(m/i,i); 
        }
    }
    //????? 
    return count;
}
